; Function Attrs: nounwind uwtable
define internal i32 @rsa_encrypt_wrap(ptr noundef readonly captures(none) %0, ptr noundef %1, i64 noundef %2, ptr noundef %3, ptr noundef writeonly captures(none) initializes((0, 8)) %4, i64 noundef %5, ptr noundef %6, ptr noundef %7) #0 {
  %9 = getelementptr inbounds nuw i8, ptr %0, i64 8
  %10 = load ptr, ptr %9, align 8, !tbaa !3
  %11 = tail call i64 @mbedtls_rsa_get_len(ptr noundef %10) #10
  store i64 %11, ptr %4, align 8, !tbaa !9
  %12 = icmp ugt i64 %11, %5
  br i1 %12, label %15, label %13

13:                                               ; preds = %8
  %14 = tail call i32 @mbedtls_rsa_pkcs1_encrypt(ptr noundef %10, ptr noundef %6, ptr noundef %7, i64 noundef %2, ptr noundef %1, ptr noundef %3) #10
  br label %15

15:                                               ; preds = %8, %13
  %.0 = phi i32 [ %14, %13 ], [ -17408, %8 ]
  ret i32 %.0
}